; Function Attrs: mustprogress nounwind uwtable
define hidden void @_ZN2cv5gimpl17GThreadedExecutor6Output4postEONS_4util7variantIJPNS_4UMatEPNS_3MatEPNS_4RMatEPNS_7Scalar_IdEEPNS_10MediaFrameENS_6detail9VectorRefENSG_9OpaqueRefEEEERKNSt15__exception_ptr13exception_ptrE(ptr noundef nonnull align 8 captures(none) dereferenceable(104) %0, ptr nonnull readnone align 8 captures(none) %1, ptr noundef nonnull readonly align 8 captures(none) dereferenceable(8) %2) unnamed_addr #6 align 2 {
  %4 = alloca %"class.std::__exception_ptr::exception_ptr", align 8
  %5 = load ptr, ptr %2, align 8, !tbaa !95
  %.not = icmp eq ptr %5, null
  br i1 %.not, label %9, label %_ZNSt15__exception_ptr13exception_ptrC2ERKS0_.exit.i

_ZNSt15__exception_ptr13exception_ptrC2ERKS0_.exit.i: ; preds = %3
  %6 = getelementptr inbounds nuw i8, ptr %0, i64 96
  call void @llvm.lifetime.start.p0(i64 8, ptr nonnull %4) #26
  store ptr %5, ptr %4, align 8, !tbaa !95
  call void @_ZNSt15__exception_ptr13exception_ptr9_M_addrefEv(ptr noundef nonnull align 8 dereferenceable(8) %4) #26
  %.pre.i = load ptr, ptr %4, align 8, !tbaa !95
  %7 = load ptr, ptr %6, align 8, !tbaa !95
  store ptr %7, ptr %4, align 8, !tbaa !95
  store ptr %.pre.i, ptr %6, align 8, !tbaa !95
  %.not.i2.i = icmp eq ptr %7, null
  br i1 %.not.i2.i, label %_ZNSt15__exception_ptr13exception_ptraSERKS0_.exit, label %8

8:                                                ; preds = %_ZNSt15__exception_ptr13exception_ptrC2ERKS0_.exit.i
  call void @_ZNSt15__exception_ptr13exception_ptr10_M_releaseEv(ptr noundef nonnull align 8 dereferenceable(8) %4) #26
  br label %_ZNSt15__exception_ptr13exception_ptraSERKS0_.exit

_ZNSt15__exception_ptr13exception_ptraSERKS0_.exit: ; preds = %_ZNSt15__exception_ptr13exception_ptrC2ERKS0_.exit.i, %8
  call void @llvm.lifetime.end.p0(i64 8, ptr nonnull %4) #26
  br label %9

9:                                                ; preds = %_ZNSt15__exception_ptr13exception_ptraSERKS0_.exit, %3
  ret void
}